target datalayout = "e-m:e-p270:32:32-p271:32:32-p272:64:64-i64:64-i128:128-f80:128-n8:16:32:64-S128"
target triple = "x86_64-pc-linux-gnu"

; Function Attrs: nounwind sspstrong uwtable
define internal ptr @call_check_ints(ptr noundef %0) #0 {
  %2 = alloca ptr, align 8
  %3 = alloca i32, align 4
  store ptr %0, ptr %2, align 8, !tbaa !6
  call void @llvm.lifetime.start.p0(i64 4, ptr %3) #19
  %4 = call i64 @rb_protect(ptr noundef @call_check_ints0, i64 noundef 4, ptr noundef %3)
  %5 = load i32, ptr %3, align 4, !tbaa !14
  %6 = sext i32 %5 to i64
  %7 = inttoptr i64 %6 to ptr
  call void @llvm.lifetime.end.p0(i64 4, ptr %3) #19
  ret ptr %7
}