; Function Attrs: nounwind sspstrong uwtable
define internal ptr @call_check_ints(ptr readnone captures(none) %0) #0 {
  %2 = alloca i32, align 4
  call void @llvm.lifetime.start.p0(i64 4, ptr nonnull %2) #8
  %3 = call i64 @rb_protect(ptr noundef nonnull @call_check_ints0, i64 noundef 4, ptr noundef nonnull %2) #8
  %4 = load i32, ptr %2, align 4, !tbaa !6
  %5 = sext i32 %4 to i64
  %6 = inttoptr i64 %5 to ptr
  call void @llvm.lifetime.end.p0(i64 4, ptr nonnull %2) #8
  ret ptr %6
}